target datalayout = "e-m:e-p270:32:32-p271:32:32-p272:64:64-i64:64-i128:128-f80:128-n8:16:32:64-S128"
target triple = "x86_64-pc-linux-gnu"

; Function Attrs: nounwind uwtable
define internal i32 @pg_sjis_mblen(ptr noundef %0) #1 {
  %2 = alloca ptr, align 8
  %3 = alloca i32, align 4
  store ptr %0, ptr %2, align 8
  call void @llvm.lifetime.start.p0(i64 4, ptr %3) #7
  %4 = load ptr, ptr %2, align 8
  %5 = load i8, ptr %4, align 1
  %6 = zext i8 %5 to i32
  %7 = icmp sge i32 %6, 161
  br i1 %7, label %8, label %14

8:                                                ; preds = %1
  %9 = load ptr, ptr %2, align 8
  %10 = load i8, ptr %9, align 1
  %11 = zext i8 %10 to i32
  %12 = icmp sle i32 %11, 223
  br i1 %12, label %13, label %14

13:                                               ; preds = %8
  store i32 1, ptr %3, align 4
  br label %23

14:                                               ; preds = %8, %1
  %15 = load ptr, ptr %2, align 8
  %16 = load i8, ptr %15, align 1
  %17 = zext i8 %16 to i32
  %18 = and i32 %17, 128
  %19 = icmp ne i32 %18, 0
  br i1 %19, label %20, label %21

20:                                               ; preds = %14
  store i32 2, ptr %3, align 4
  br label %22

21:                                               ; preds = %14
  store i32 1, ptr %3, align 4
  br label %22

22:                                               ; preds = %21, %20
  br label %23

23:                                               ; preds = %22, %13
  %24 = load i32, ptr %3, align 4
  call void @llvm.lifetime.end.p0(i64 4, ptr %3) #7
  ret i32 %24
}