; Function Attrs: mustprogress nofree norecurse nosync nounwind willreturn memory(argmem: read) uwtable
define internal range(i32 1, 3) i32 @pg_sjis_mblen(ptr noundef readonly captures(none) %0) #0 {
  %2 = load i8, ptr %0, align 1
  %3 = add i8 %2, 95
  %or.cond = icmp ult i8 %3, 63
  %.not = icmp sgt i8 %2, -1
  %4 = or i1 %.not, %or.cond
  %.0 = select i1 %4, i32 1, i32 2
  ret i32 %.0
}